target datalayout = "e-m:e-p270:32:32-p271:32:32-p272:64:64-i64:64-i128:128-f80:128-n8:16:32:64-S128"
target triple = "x86_64-pc-linux-gnu"

@.str.210 = private unnamed_addr constant [26 x i8] c"%s is not a valid number\0A\00", align 1

; Function Attrs: inlinehint nounwind sspstrong uwtable
define internal ptr @timer_new_full(ptr noundef %0, i32 noundef %1, i32 noundef %2, i32 noundef %3, ptr noundef %4, ptr noundef %5) #9 {
  %7 = alloca ptr, align 8
  %8 = alloca i32, align 4
  %9 = alloca i32, align 4
  %10 = alloca i32, align 4
  %11 = alloca ptr, align 8
  %12 = alloca ptr, align 8
  %13 = alloca ptr, align 8
  %14 = alloca i64, align 8
  %15 = alloca i64, align 8
  %16 = alloca ptr, align 8
  %17 = alloca ptr, align 8
  store ptr %0, ptr %7, align 8
  store i32 %1, ptr %8, align 4
  store i32 %2, ptr %9, align 4
  store i32 %3, ptr %10, align 4
  store ptr %4, ptr %11, align 8
  store ptr %5, ptr %12, align 8
  call void @llvm.lifetime.start.p0(i64 8, ptr %13) #18
  call void @llvm.lifetime.start.p0(i64 8, ptr %14) #18
  store i64 1, ptr %14, align 8
  call void @llvm.lifetime.start.p0(i64 8, ptr %15) #18
  store i64 48, ptr %15, align 8
  call void @llvm.lifetime.start.p0(i64 8, ptr %16) #18
  store ptr null, ptr %16, align 8, !annotation !4
  %18 = load i64, ptr %15, align 8
  %19 = icmp eq i64 %18, 1
  br i1 %19, label %20, label %23

20:                                               ; preds = %6
  %21 = load i64, ptr %14, align 8
  %22 = call noalias ptr @g_malloc0(i64 noundef %21) #20
  store ptr %22, ptr %16, align 8
  br label %44

23:                                               ; preds = %6
  %24 = load i64, ptr %14, align 8
  %25 = call i1 @llvm.is.constant.i64(i64 %24)
  br i1 %25, label %26, label %39

26:                                               ; preds = %23
  %27 = load i64, ptr %15, align 8
  %28 = icmp eq i64 %27, 0
  br i1 %28, label %34, label %29

29:                                               ; preds = %26
  %30 = load i64, ptr %14, align 8
  %31 = load i64, ptr %15, align 8
  %32 = udiv i64 -1, %31
  %33 = icmp ule i64 %30, %32
  br i1 %33, label %34, label %39

34:                                               ; preds = %29, %26
  %35 = load i64, ptr %14, align 8
  %36 = load i64, ptr %15, align 8
  %37 = mul i64 %35, %36
  %38 = call noalias ptr @g_malloc0(i64 noundef %37) #20
  store ptr %38, ptr %16, align 8
  br label %43

39:                                               ; preds = %29, %23
  %40 = load i64, ptr %14, align 8
  %41 = load i64, ptr %15, align 8
  %42 = call noalias ptr @g_malloc0_n(i64 noundef %40, i64 noundef %41) #21
  store ptr %42, ptr %16, align 8
  br label %43

43:                                               ; preds = %39, %34
  br label %44

44:                                               ; preds = %43, %20
  %45 = load ptr, ptr %16, align 8
  store ptr %45, ptr %17, align 8
  call void @llvm.lifetime.end.p0(i64 8, ptr %16) #18
  call void @llvm.lifetime.end.p0(i64 8, ptr %15) #18
  call void @llvm.lifetime.end.p0(i64 8, ptr %14) #18
  %46 = load ptr, ptr %17, align 8
  store ptr %46, ptr %13, align 8
  %47 = load ptr, ptr %13, align 8
  %48 = load ptr, ptr %7, align 8
  %49 = load i32, ptr %8, align 4
  %50 = load i32, ptr %9, align 4
  %51 = load i32, ptr %10, align 4
  %52 = load ptr, ptr %11, align 8
  %53 = load ptr, ptr %12, align 8
  call void @timer_init_full(ptr noundef %47, ptr noundef %48, i32 noundef %49, i32 noundef %50, i32 noundef %51, ptr noundef %52, ptr noundef %53)
  %54 = load ptr, ptr %13, align 8
  call void @llvm.lifetime.end.p0(i64 8, ptr %13) #18
  ret ptr %54
}

; Function Attrs: inlinehint nounwind sspstrong uwtable
define internal ptr @timer_new(i32 noundef %0, i32 noundef %1, ptr noundef %2, ptr noundef %3) #9 {
  %5 = alloca i32, align 4
  %6 = alloca i32, align 4
  %7 = alloca ptr, align 8
  %8 = alloca ptr, align 8
  store i32 %0, ptr %5, align 4
  store i32 %1, ptr %6, align 4
  store ptr %2, ptr %7, align 8
  store ptr %3, ptr %8, align 8
  %9 = load i32, ptr %5, align 4
  %10 = load i32, ptr %6, align 4
  %11 = load ptr, ptr %7, align 8
  %12 = load ptr, ptr %8, align 8
  %13 = call ptr @timer_new_full(ptr noundef null, i32 noundef %9, i32 noundef %10, i32 noundef 0, ptr noundef %11, ptr noundef %12)
  ret ptr %13
}

; Function Attrs: inlinehint nounwind sspstrong uwtable
define internal void @timer_free(ptr noundef %0) #9 {
  %2 = alloca ptr, align 8
  store ptr %0, ptr %2, align 8
  %3 = load ptr, ptr %2, align 8
  %4 = icmp ne ptr %3, null
  br i1 %4, label %5, label %8

5:                                                ; preds = %1
  %6 = load ptr, ptr %2, align 8
  call void @timer_del(ptr noundef %6)
  %7 = load ptr, ptr %2, align 8
  call void @g_free(ptr noundef %7)
  br label %8

8:                                                ; preds = %5, %1
  ret void
}

; Function Attrs: inlinehint nounwind sspstrong uwtable
define internal ptr @timer_new_ns(i32 noundef %0, ptr noundef %1, ptr noundef %2) #9 {
  %4 = alloca i32, align 4
  %5 = alloca ptr, align 8
  %6 = alloca ptr, align 8
  store i32 %0, ptr %4, align 4
  store ptr %1, ptr %5, align 8
  store ptr %2, ptr %6, align 8
  %7 = load i32, ptr %4, align 4
  %8 = load ptr, ptr %5, align 8
  %9 = load ptr, ptr %6, align 8
  %10 = call ptr @timer_new(i32 noundef %7, i32 noundef 1, ptr noundef %8, ptr noundef %9)
  ret ptr %10
}

; Function Attrs: nounwind sspstrong uwtable
define internal i32 @sleep_f(ptr noundef %0, i32 noundef %1, ptr noundef %2) #0 {
  %4 = alloca i32, align 4
  %5 = alloca ptr, align 8
  %6 = alloca i32, align 4
  %7 = alloca ptr, align 8
  %8 = alloca ptr, align 8
  %9 = alloca i64, align 8
  %10 = alloca ptr, align 8
  %11 = alloca i8, align 1
  %12 = alloca i32, align 4
  store ptr %0, ptr %5, align 8
  store i32 %1, ptr %6, align 4
  store ptr %2, ptr %7, align 8
  call void @llvm.lifetime.start.p0(i64 8, ptr %8) #18
  store ptr null, ptr %8, align 8, !annotation !4
  call void @llvm.lifetime.start.p0(i64 8, ptr %9) #18
  store i64 0, ptr %9, align 8, !annotation !4
  call void @llvm.lifetime.start.p0(i64 8, ptr %10) #18
  store ptr null, ptr %10, align 8, !annotation !4
  call void @llvm.lifetime.start.p0(i64 1, ptr %11) #18
  store i8 0, ptr %11, align 1
  %13 = load ptr, ptr %7, align 8
  %14 = getelementptr inbounds ptr, ptr %13, i64 1
  %15 = load ptr, ptr %14, align 8
  %16 = call i64 @strtol(ptr noundef %15, ptr noundef %8, i32 noundef 0) #18
  store i64 %16, ptr %9, align 8
  %17 = load i64, ptr %9, align 8
  %18 = icmp slt i64 %17, 0
  br i1 %18, label %24, label %19

19:                                               ; preds = %3
  %20 = load ptr, ptr %8, align 8
  %21 = load i8, ptr %20, align 1
  %22 = sext i8 %21 to i32
  %23 = icmp ne i32 %22, 0
  br i1 %23, label %24, label %29

24:                                               ; preds = %19, %3
  %25 = load ptr, ptr %7, align 8
  %26 = getelementptr inbounds ptr, ptr %25, i64 1
  %27 = load ptr, ptr %26, align 8
  %28 = call i32 (i32, ptr, ...) @__printf_chk(i32 noundef 1, ptr noundef @.str.210, ptr noundef %27)
  store i32 -22, ptr %4, align 4
  store i32 1, ptr %12, align 4
  br label %43

29:                                               ; preds = %19
  %30 = call ptr @timer_new_ns(i32 noundef 2, ptr noundef @sleep_cb, ptr noundef %11)
  store ptr %30, ptr %10, align 8
  %31 = load ptr, ptr %10, align 8
  %32 = call i64 @qemu_clock_get_ns(i32 noundef 2)
  %33 = load i64, ptr %9, align 8
  %34 = mul i64 1000000, %33
  %35 = add i64 %32, %34
  call void @timer_mod(ptr noundef %31, i64 noundef %35)
  br label %36

36:                                               ; preds = %40, %29
  %37 = load i8, ptr %11, align 1, !range !11, !noundef !12
  %38 = trunc i8 %37 to i1
  %39 = xor i1 %38, true
  br i1 %39, label %40, label %41

40:                                               ; preds = %36
  call void @main_loop_wait(i32 noundef 0)
  br label %36, !llvm.loop !35

41:                                               ; preds = %36
  %42 = load ptr, ptr %10, align 8
  call void @timer_free(ptr noundef %42)
  store i32 0, ptr %4, align 4
  store i32 1, ptr %12, align 4
  br label %43

43:                                               ; preds = %41, %24
  call void @llvm.lifetime.end.p0(i64 1, ptr %11) #18
  call void @llvm.lifetime.end.p0(i64 8, ptr %10) #18
  call void @llvm.lifetime.end.p0(i64 8, ptr %9) #18
  call void @llvm.lifetime.end.p0(i64 8, ptr %8) #18
  %44 = load i32, ptr %4, align 4
  ret i32 %44
}