; Function Attrs: nounwind sspstrong uwtable
define internal range(i32 -22, 1) i32 @sleep_f(ptr readnone captures(none) %0, i32 %1, ptr noundef readonly captures(none) %2) #0 {
  %4 = alloca ptr, align 8
  %5 = alloca i8, align 1
  call void @llvm.lifetime.start.p0(i64 8, ptr nonnull %4) #26
  store ptr null, ptr %4, align 8, !annotation !8
  call void @llvm.lifetime.start.p0(i64 1, ptr nonnull %5) #26
  store i8 0, ptr %5, align 1
  %6 = getelementptr inbounds nuw i8, ptr %2, i64 8
  %7 = load ptr, ptr %6, align 8
  %8 = call i64 @strtol(ptr noundef %7, ptr noundef nonnull %4, i32 noundef 0) #26
  %9 = icmp slt i64 %8, 0
  br i1 %9, label %13, label %10

10:                                               ; preds = %3
  %11 = load ptr, ptr %4, align 8
  %12 = load i8, ptr %11, align 1
  %.not = icmp eq i8 %12, 0
  br i1 %.not, label %16, label %13

13:                                               ; preds = %10, %3
  %14 = load ptr, ptr %6, align 8
  %15 = tail call i32 (i32, ptr, ...) @__printf_chk(i32 noundef 1, ptr noundef nonnull @.str.210, ptr noundef %14) #26
  br label %timer_free.exit

16:                                               ; preds = %10
  %17 = tail call noalias dereferenceable_or_null(48) ptr @g_malloc0(i64 noundef 48) #28
  call void @timer_init_full(ptr noundef %17, ptr noundef null, i32 noundef 2, i32 noundef 1, i32 noundef 0, ptr noundef nonnull @sleep_cb, ptr noundef nonnull %5) #26
  %18 = call i64 @qemu_clock_get_ns(i32 noundef 2) #26
  %19 = mul i64 %8, 1000000
  %20 = add i64 %18, %19
  call void @timer_mod(ptr noundef %17, i64 noundef %20) #26
  %21 = load i8, ptr %5, align 1, !range !11, !noundef !12
  %22 = trunc nuw i8 %21 to i1
  br i1 %22, label %._crit_edge, label %.lr.ph

.lr.ph:                                           ; preds = %16, %.lr.ph
  call void @main_loop_wait(i32 noundef 0) #26
  %23 = load i8, ptr %5, align 1, !range !11, !noundef !12
  %24 = trunc nuw i8 %23 to i1
  br i1 %24, label %._crit_edge, label %.lr.ph, !llvm.loop !34

._crit_edge:                                      ; preds = %.lr.ph, %16
  %.not.i = icmp eq ptr %17, null
  br i1 %.not.i, label %timer_free.exit, label %25

25:                                               ; preds = %._crit_edge
  call void @timer_del(ptr noundef nonnull %17) #26
  call void @g_free(ptr noundef nonnull %17) #26
  br label %timer_free.exit

timer_free.exit:                                  ; preds = %25, %._crit_edge, %13
  %.0 = phi i32 [ -22, %13 ], [ 0, %._crit_edge ], [ 0, %25 ]
  call void @llvm.lifetime.end.p0(i64 1, ptr nonnull %5) #26
  call void @llvm.lifetime.end.p0(i64 8, ptr nonnull %4) #26
  ret i32 %.0
}